target datalayout = "e-m:e-p270:32:32-p271:32:32-p272:64:64-i64:64-i128:128-f80:128-n8:16:32:64-S128"
target triple = "x86_64-unknown-linux-gnu"

@stderr = external global ptr, align 8
@thread_file = internal thread_local global ptr null, align 8

; Function Attrs: nounwind sspstrong uwtable
define internal void @qemu_log_thread_cleanup(ptr noundef %n, ptr noundef %unused) #0 {
entry:
  %n.addr = alloca ptr, align 8
  %unused.addr = alloca ptr, align 8
  store ptr %n, ptr %n.addr, align 8
  store ptr %unused, ptr %unused.addr, align 8
  %0 = call align 8 ptr @llvm.threadlocal.address.p0(ptr align 8 @thread_file)
  %1 = load ptr, ptr %0, align 8
  %2 = load ptr, ptr @stderr, align 8
  %cmp = icmp ne ptr %1, %2
  br i1 %cmp, label %if.then, label %if.end

if.then:                                          ; preds = %entry
  %3 = call align 8 ptr @llvm.threadlocal.address.p0(ptr align 8 @thread_file)
  %4 = load ptr, ptr %3, align 8
  %call = call i32 @fclose(ptr noundef %4)
  %5 = call align 8 ptr @llvm.threadlocal.address.p0(ptr align 8 @thread_file)
  store ptr null, ptr %5, align 8
  br label %if.end

if.end:                                           ; preds = %if.then, %entry
  ret void
}