; Function Attrs: nofree nounwind sspstrong uwtable
define internal void @qemu_log_thread_cleanup(ptr readnone captures(none) %n, ptr readnone captures(none) %unused) #7 {
entry:
  %0 = tail call align 8 ptr @llvm.threadlocal.address.p0(ptr align 8 @thread_file)
  %1 = load ptr, ptr %0, align 8
  %2 = load ptr, ptr @stderr, align 8
  %cmp.not = icmp eq ptr %1, %2
  br i1 %cmp.not, label %if.end, label %if.then

if.then:                                          ; preds = %entry
  %call = tail call i32 @fclose(ptr noundef %1)
  store ptr null, ptr %0, align 8
  br label %if.end

if.end:                                           ; preds = %if.then, %entry
  ret void
}